C:\Users\Scumb\Desktop\Du Hast\MicroProcessor Lab\Lab 5\Lab5.lst - generated by MGTEK Assembler ASM11 V1.26 Build 144 for WIN32 (x86) - Thu Oct 17 13:55:09 2019

    1:                                      *Program SHB7
    2:                                      *Switches the matrix rows around
    3:          =00000004                   N           EQU 4             ; Number of matrix rows
    4:          =00000005                   M           EQU 5             ; Number of matrix columns
    5:          =0000FFB8                   OUTA        EQU $FFB8         ; Address of OUTA Buffalo subroutine
    6:          =0000FFC7                   OUTSTRG     EQU $FFC7         ; Address of OUTSTRG Buffalo subroutine
    7:          =0000FFC4                   OUTCRLF     EQU $FFC4         ; Address of OUTCRLF Buffalo subroutine
    8:          =0000FFBE                   OUT1BSP     EQU $FFBE         ; Address of OUT1BSP Buffalo subroutine
    9:                                      *Declares matricies
   10:          =00000000                           ORG     $00
C:\Users\Scumb\Desktop\Du Hast\MicroProcessor Lab\Lab 5\Lab5.asm(11): Warning A4304: col(8) obsolete directive
   11:     0000 01 02 03 04 05              Mat     FCB     $01, $02, $03, $04, $05;10
C:\Users\Scumb\Desktop\Du Hast\MicroProcessor Lab\Lab 5\Lab5.asm(12): Warning A4304: col(5) obsolete directive
   12:     0005 06 07 08 09 0A                      FCB     $06, $07, $08, $09, $0A
C:\Users\Scumb\Desktop\Du Hast\MicroProcessor Lab\Lab 5\Lab5.asm(13): Warning A4304: col(5) obsolete directive
   13:     000A 0B 0C 0D 0E 0F                      FCB     $0B, $0C, $0D, $0E, $0F
C:\Users\Scumb\Desktop\Du Hast\MicroProcessor Lab\Lab 5\Lab5.asm(14): Warning A4304: col(5) obsolete directive
   14:     000F 10 11 12 13 14                      FCB     $10, $11, $12, $13, $14
   15:                                      
C:\Users\Scumb\Desktop\Du Hast\MicroProcessor Lab\Lab 5\Lab5.asm(16): Warning A4304: col(6) obsolete directive
   16:     0014 01                          R       FCB     1
C:\Users\Scumb\Desktop\Du Hast\MicroProcessor Lab\Lab 5\Lab5.asm(17): Warning A4304: col(6) obsolete directive
   17:     0015 01                          V       FCB     1
   18:                                              
   19:          =0000B600                           ORG     $B600         ; Save code in EPROM
   20:                                      **** START OF MAIN PROGRAM ****
   21:     B600 8E 01FF                [03] Main    LDS     #$01FF        ; Initialize SP   20
   22:                                      
   23:     B603 CE B665                [03]         LDX     #MSG1         ; Load X with base address of MSG1
   24:     B606 BD FFC7                [06]         JSR     OUTSTRG       ; Call subroutine to print MSG1
   25:     B609 8D 0B                  [06]         BSR     PRINTMAT      ;Call subroutine to print original matrix
   26:     B60B 8D 1C                  [06]         BSR     SWAPMAT       ; Call subroutine to swap matrix columns
   27:                                      
   28:     B60D CE B688                [03]         LDX     #MSG2         ; Load X with base address of MSG2
   29:     B610 BD FFC7                [06]         JSR     OUTSTRG       ; Call subroutine to print MSG2
   30:                                      
   31:     B613 8D 01                  [06]         BSR     PRINTMAT      ;Call subroutine to print modified matrix  30
   32:     B615 3F                     [0E]         SWI               ; return to Buffalo monitor
   33:                                      **** CODE FOR SUBROUTINES GOES HERE ****
   34:     B616                             PRINTMAT                 ; code for printing the matrix
   35:     B616 4F                     [02]         clra
   36:     B617 5F                     [02] loop    clrb
   37:     B618 BD FFBE                [06]         JSR     OUT1BSP
   38:     B61B 5C                     [02]         incb
   39:     B61C D1 04                  [03]         CMPB    M-1
   40:     B61E 26 F7                  [03]         BNE     loop
   41:     B620 BD FFC4                [06]         JSR     OUTCRLF ;       40
   42:     B623 4C                     [02]         inca
   43:     B624 91 03                  [03]         CMPA    N-1
   44:     B626 26 EF                  [03]         BNE     loop
   45:                                      
   46:     B628 39                     [05]         RTS               ; Return from subroutine
   47:     B629                             SWAPMAT
   48:     B629 CE 0000                [03]         LDX     #Mat
   49:     B62C 96 04                  [03]         LDAA    N
   50:     B62E 97 14                  [03]         STAA    R       ;       50
   51:     B630 96 05                  [03]         LDAA    M       ;       
   52:     B632 4A                     [02]         DECA
   53:     B633 97 15                  [03]         STAA    V
   54:     B635                             RowLoop 
   55:     B635                             ColoumnLoop
   56:     B635 A6 15                  [04]         LDAA    V,X
   57:     B637 36                     [03]         PSHA
   58:     B638 7A 0015                [06]         DEC     V
   59:     B63B 96 15                  [03]         LDAA    V
   60:     B63D 4D                     [02]         TSTA
   61:     B63E 26 F5                  [03]         BNE     ColoumnLoop             ; 60
   62:     B640 96 05                  [03]         LDAA    M
   63:     B642                             Restart         ;               
   64:     B642 08                     [03]         INX
   65:     B643 7C 0015                [06]         INC     V
   66:     B646 4D                     [02]         TSTA
   67:     B647 26 F9                  [03]         BNE     Restart
   68:     B649 7A 0015                [06]         DEC     V
   69:     B64C 7A 0014                [06]         DEC     R
   70:     B64F 96 14                  [03]         LDAA    R
   71:     B651 4D                     [02]         TSTA
   72:     B652 26 E1                  [03]         BNE     RowLoop
   73:                                              
   74:     B654 96 05                  [03]         LDAA    M
   75:     B656 96 04                  [03]         LDAA    N
   76:     B658 3D                     [0A]         MUL
   77:                                      
   78:     B659 CE 0000                [03]         LDX     #Mat
   79:     B65C                             Store
   80:     B65C 32                     [04]         PULA
   81:     B65D A7 00                  [04]         STAA    0,X
   82:     B65F 08                     [03]         INX
   83:     B660 5A                     [02]         DECB
   84:     B661 5D                     [02]         TSTB
   85:     B662 26 F8                  [03]         BNE     Store
   86:                                      
   87:     B664 39                     [05]         RTS               ; code for swapping the matrix columns
   88:                                                                    ; Return from subroutine
   89:                                      **** DEFINE MESSAGES ****
C:\Users\Scumb\Desktop\Du Hast\MicroProcessor Lab\Lab 5\Lab5.asm(90): Warning A4304: col(9) obsolete directive
   90:     B665 54 68 65 20 6F 72           MSG1    FCC     "The original matrix is as follows:" 
           B66B 69 67 69 6E 61 6C 
           B671 20 6D 61 74 72 69 
           B677 78 20 69 73 20 61 
           B67D 73 20 66 6F 6C 6C 
           B683 6F 77 73 3A 
C:\Users\Scumb\Desktop\Du Hast\MicroProcessor Lab\Lab 5\Lab5.asm(91): Warning A4304: col(5) obsolete directive
   91:     B687 04                                  FCB     $04
C:\Users\Scumb\Desktop\Du Hast\MicroProcessor Lab\Lab 5\Lab5.asm(92): Warning A4304: col(9) obsolete directive
   92:     B688 54 68 65 20 6D 6F           MSG2    FCC     "The modified matrix is as follows:" 
           B68E 64 69 66 69 65 64 
           B694 20 6D 61 74 72 69 
           B69A 78 20 69 73 20 61 
           B6A0 73 20 66 6F 6C 6C 
           B6A6 6F 77 73 3A 
C:\Users\Scumb\Desktop\Du Hast\MicroProcessor Lab\Lab 5\Lab5.asm(93): Warning A4304: col(5) obsolete directive
   93:     B6AA 04                                  FCB     $04
